target datalayout = "e-m:e-p270:32:32-p271:32:32-p272:64:64-i64:64-i128:128-f80:128-n8:16:32:64-S128"
target triple = "x86_64-pc-linux-gnu"

%"class.std::__cxx11::basic_string" = type { %"struct.std::__cxx11::basic_string<char>::_Alloc_hider", i64, %union.anon.0 }
%"struct.std::__cxx11::basic_string<char>::_Alloc_hider" = type { ptr }
%union.anon.0 = type { i64, [8 x i8] }
%"class.LIEF::PE::ResourceNode" = type <{ %"class.LIEF::Object", i32, i32, %"class.std::__cxx11::basic_string.39", %"class.std::vector.44", i32, [4 x i8] }>
%"class.LIEF::Object" = type { ptr }
%"class.std::__cxx11::basic_string.39" = type { %"struct.std::__cxx11::basic_string<char16_t>::_Alloc_hider", i64, %union.anon.43 }
%"struct.std::__cxx11::basic_string<char16_t>::_Alloc_hider" = type { ptr }
%union.anon.43 = type { i64, [8 x i8] }
%"class.std::vector.44" = type { %"struct.std::_Vector_base.45" }
%"struct.std::_Vector_base.45" = type { %"struct.std::_Vector_base<std::unique_ptr<LIEF::PE::ResourceNode>, std::allocator<std::unique_ptr<LIEF::PE::ResourceNode>>>::_Vector_impl" }
%"struct.std::_Vector_base<std::unique_ptr<LIEF::PE::ResourceNode>, std::allocator<std::unique_ptr<LIEF::PE::ResourceNode>>>::_Vector_impl" = type { %"struct.std::_Vector_base<std::unique_ptr<LIEF::PE::ResourceNode>, std::allocator<std::unique_ptr<LIEF::PE::ResourceNode>>>::_Vector_impl_data" }
%"struct.std::_Vector_base<std::unique_ptr<LIEF::PE::ResourceNode>, std::allocator<std::unique_ptr<LIEF::PE::ResourceNode>>>::_Vector_impl_data" = type { ptr, ptr, ptr }
%"class.__gnu_cxx::__normal_iterator" = type { ptr }
%"class.LIEF::ref_iterator.58" = type { ptr, %"class.__gnu_cxx::__normal_iterator", i64 }
%"struct.std::_Setw" = type { i32 }
%"struct.std::_Setfill" = type { i8 }

@.str.3 = private unnamed_addr constant [12 x i8] c"[DIRECTORY]\00", align 1
@.str.4 = private unnamed_addr constant [7 x i8] c"[DATA]\00", align 1
@.str.5 = private unnamed_addr constant [10 x i8] c" - ID: 0x\00", align 1
@.str.6 = private unnamed_addr constant [3 x i8] c" (\00", align 1
@.str.7 = private unnamed_addr constant [2 x i8] c")\00", align 1
@.str.8 = private unnamed_addr constant [11 x i8] c" - Depth: \00", align 1
@.str.9 = private unnamed_addr constant [13 x i8] c" - Childs : \00", align 1

; Function Attrs: mustprogress nounwind uwtable
define linkonce_odr hidden void @_ZN9__gnu_cxx17__normal_iteratorIPKSt10unique_ptrIN4LIEF2PE12ResourceNodeESt14default_deleteIS4_EESt6vectorIS7_SaIS7_EEEC2ERKS9_(ptr noundef nonnull align 8 dereferenceable(8) %0, ptr noundef nonnull align 8 dereferenceable(8) %1) unnamed_addr #1 comdat align 2 {
  %3 = alloca ptr, align 8
  %4 = alloca ptr, align 8
  store ptr %0, ptr %3, align 8
  store ptr %1, ptr %4, align 8
  %5 = load ptr, ptr %3, align 8
  %6 = getelementptr inbounds %"class.__gnu_cxx::__normal_iterator", ptr %5, i32 0, i32 0
  %7 = load ptr, ptr %4, align 8
  %8 = load ptr, ptr %7, align 8
  store ptr %8, ptr %6, align 8
  ret void
}

; Function Attrs: mustprogress nounwind uwtable
define linkonce_odr hidden ptr @_ZNKSt6vectorISt10unique_ptrIN4LIEF2PE12ResourceNodeESt14default_deleteIS3_EESaIS6_EE5beginEv(ptr noundef nonnull align 8 dereferenceable(24) %0) #1 comdat align 2 {
  %2 = alloca %"class.__gnu_cxx::__normal_iterator", align 8
  %3 = alloca ptr, align 8
  store ptr %0, ptr %3, align 8
  %4 = load ptr, ptr %3, align 8
  %5 = getelementptr inbounds %"struct.std::_Vector_base.45", ptr %4, i32 0, i32 0
  %6 = getelementptr inbounds %"struct.std::_Vector_base<std::unique_ptr<LIEF::PE::ResourceNode>, std::allocator<std::unique_ptr<LIEF::PE::ResourceNode>>>::_Vector_impl_data", ptr %5, i32 0, i32 0
  call void @_ZN9__gnu_cxx17__normal_iteratorIPKSt10unique_ptrIN4LIEF2PE12ResourceNodeESt14default_deleteIS4_EESt6vectorIS7_SaIS7_EEEC2ERKS9_(ptr noundef nonnull align 8 dereferenceable(8) %2, ptr noundef nonnull align 8 dereferenceable(8) %6) #15
  %7 = getelementptr inbounds %"class.__gnu_cxx::__normal_iterator", ptr %2, i32 0, i32 0
  %8 = load ptr, ptr %7, align 8
  ret ptr %8
}

; Function Attrs: mustprogress nounwind uwtable
define linkonce_odr ptr @_ZSt5beginISt6vectorISt10unique_ptrIN4LIEF2PE12ResourceNodeESt14default_deleteIS4_EESaIS7_EEEDTcldtfp_5beginEERKT_(ptr noundef nonnull align 8 dereferenceable(24) %0) #1 comdat {
  %2 = alloca %"class.__gnu_cxx::__normal_iterator", align 8
  %3 = alloca ptr, align 8
  store ptr %0, ptr %3, align 8
  %4 = load ptr, ptr %3, align 8
  %5 = call ptr @_ZNKSt6vectorISt10unique_ptrIN4LIEF2PE12ResourceNodeESt14default_deleteIS3_EESaIS6_EE5beginEv(ptr noundef nonnull align 8 dereferenceable(24) %4) #15
  %6 = getelementptr inbounds %"class.__gnu_cxx::__normal_iterator", ptr %2, i32 0, i32 0
  store ptr %5, ptr %6, align 8
  %7 = getelementptr inbounds %"class.__gnu_cxx::__normal_iterator", ptr %2, i32 0, i32 0
  %8 = load ptr, ptr %7, align 8
  ret ptr %8
}

; Function Attrs: mustprogress nounwind uwtable
define linkonce_odr hidden void @_ZN9__gnu_cxx17__normal_iteratorIPKSt10unique_ptrIN4LIEF2PE12ResourceNodeESt14default_deleteIS4_EESt6vectorIS7_SaIS7_EEEC2Ev(ptr noundef nonnull align 8 dereferenceable(8) %0) unnamed_addr #1 comdat align 2 {
  %2 = alloca ptr, align 8
  store ptr %0, ptr %2, align 8
  %3 = load ptr, ptr %2, align 8
  %4 = getelementptr inbounds %"class.__gnu_cxx::__normal_iterator", ptr %3, i32 0, i32 0
  store ptr null, ptr %4, align 8
  ret void
}

; Function Attrs: mustprogress nounwind uwtable
define linkonce_odr hidden noundef i64 @_ZNKSt6vectorISt10unique_ptrIN4LIEF2PE12ResourceNodeESt14default_deleteIS3_EESaIS6_EE4sizeEv(ptr noundef nonnull align 8 dereferenceable(24) %0) #1 comdat align 2 {
  %2 = alloca ptr, align 8
  store ptr %0, ptr %2, align 8
  %3 = load ptr, ptr %2, align 8
  %4 = getelementptr inbounds %"struct.std::_Vector_base.45", ptr %3, i32 0, i32 0
  %5 = getelementptr inbounds %"struct.std::_Vector_base<std::unique_ptr<LIEF::PE::ResourceNode>, std::allocator<std::unique_ptr<LIEF::PE::ResourceNode>>>::_Vector_impl_data", ptr %4, i32 0, i32 1
  %6 = load ptr, ptr %5, align 8
  %7 = getelementptr inbounds %"struct.std::_Vector_base.45", ptr %3, i32 0, i32 0
  %8 = getelementptr inbounds %"struct.std::_Vector_base<std::unique_ptr<LIEF::PE::ResourceNode>, std::allocator<std::unique_ptr<LIEF::PE::ResourceNode>>>::_Vector_impl_data", ptr %7, i32 0, i32 0
  %9 = load ptr, ptr %8, align 8
  %10 = ptrtoint ptr %6 to i64
  %11 = ptrtoint ptr %9 to i64
  %12 = sub i64 %10, %11
  %13 = sdiv exact i64 %12, 8
  ret i64 %13
}

; Function Attrs: mustprogress uwtable
define linkonce_odr hidden void @_ZN4LIEF12ref_iteratorIRKSt6vectorISt10unique_ptrINS_2PE12ResourceNodeESt14default_deleteIS4_EESaIS7_EEPS4_N9__gnu_cxx17__normal_iteratorIPKS7_S9_EEEC2ESB_(ptr noundef nonnull align 8 dereferenceable(24) %0, ptr noundef nonnull align 8 dereferenceable(24) %1) unnamed_addr #3 comdat align 2 {
  %3 = alloca ptr, align 8
  %4 = alloca ptr, align 8
  %5 = alloca %"class.__gnu_cxx::__normal_iterator", align 8
  store ptr %0, ptr %3, align 8
  store ptr %1, ptr %4, align 8
  %6 = load ptr, ptr %3, align 8
  %7 = getelementptr inbounds %"class.LIEF::ref_iterator.58", ptr %6, i32 0, i32 0
  %8 = load ptr, ptr %4, align 8
  store ptr %8, ptr %7, align 8
  %9 = getelementptr inbounds %"class.LIEF::ref_iterator.58", ptr %6, i32 0, i32 1
  call void @_ZN9__gnu_cxx17__normal_iteratorIPKSt10unique_ptrIN4LIEF2PE12ResourceNodeESt14default_deleteIS4_EESt6vectorIS7_SaIS7_EEEC2Ev(ptr noundef nonnull align 8 dereferenceable(8) %9) #15
  %10 = getelementptr inbounds %"class.LIEF::ref_iterator.58", ptr %6, i32 0, i32 2
  store i64 0, ptr %10, align 8
  %11 = getelementptr inbounds %"class.LIEF::ref_iterator.58", ptr %6, i32 0, i32 0
  %12 = load ptr, ptr %11, align 8
  %13 = call ptr @_ZSt5beginISt6vectorISt10unique_ptrIN4LIEF2PE12ResourceNodeESt14default_deleteIS4_EESaIS7_EEEDTcldtfp_5beginEERKT_(ptr noundef nonnull align 8 dereferenceable(24) %12)
  %14 = getelementptr inbounds %"class.__gnu_cxx::__normal_iterator", ptr %5, i32 0, i32 0
  store ptr %13, ptr %14, align 8
  %15 = getelementptr inbounds %"class.LIEF::ref_iterator.58", ptr %6, i32 0, i32 1
  call void @llvm.memcpy.p0.p0.i64(ptr align 8 %15, ptr align 8 %5, i64 8, i1 false)
  ret void
}

; Function Attrs: mustprogress nounwind uwtable
define linkonce_odr hidden noundef i64 @_ZNK4LIEF12ref_iteratorIRKSt6vectorISt10unique_ptrINS_2PE12ResourceNodeESt14default_deleteIS4_EESaIS7_EEPS4_N9__gnu_cxx17__normal_iteratorIPKS7_S9_EEE4sizeEv(ptr noundef nonnull align 8 dereferenceable(24) %0) #1 comdat align 2 {
  %2 = alloca ptr, align 8
  store ptr %0, ptr %2, align 8
  %3 = load ptr, ptr %2, align 8
  %4 = getelementptr inbounds %"class.LIEF::ref_iterator.58", ptr %3, i32 0, i32 0
  %5 = load ptr, ptr %4, align 8
  %6 = call noundef i64 @_ZNKSt6vectorISt10unique_ptrIN4LIEF2PE12ResourceNodeESt14default_deleteIS3_EESaIS6_EE4sizeEv(ptr noundef nonnull align 8 dereferenceable(24) %5) #15
  ret i64 %6
}

; Function Attrs: mustprogress uwtable
define void @_ZNK4LIEF2PE12ResourceNode6childsEv(ptr dead_on_unwind noalias writable sret(%"class.LIEF::ref_iterator.58") align 8 %0, ptr noundef nonnull align 8 dereferenceable(76) %1) #3 align 2 {
  %3 = alloca ptr, align 8
  %4 = alloca ptr, align 8
  store ptr %0, ptr %3, align 8
  store ptr %1, ptr %4, align 8
  %5 = load ptr, ptr %4, align 8
  %6 = getelementptr inbounds %"class.LIEF::PE::ResourceNode", ptr %5, i32 0, i32 4
  call void @_ZN4LIEF12ref_iteratorIRKSt6vectorISt10unique_ptrINS_2PE12ResourceNodeESt14default_deleteIS4_EESaIS7_EEPS4_N9__gnu_cxx17__normal_iteratorIPKS7_S9_EEEC2ESB_(ptr noundef nonnull align 8 dereferenceable(24) %0, ptr noundef nonnull align 8 dereferenceable(24) %6)
  ret void
}

; Function Attrs: mustprogress nounwind uwtable
define noundef i32 @_ZNK4LIEF2PE12ResourceNode5depthEv(ptr noundef nonnull align 8 dereferenceable(76) %0) #1 align 2 {
  %2 = alloca ptr, align 8
  store ptr %0, ptr %2, align 8
  %3 = load ptr, ptr %2, align 8
  %4 = getelementptr inbounds %"class.LIEF::PE::ResourceNode", ptr %3, i32 0, i32 5
  %5 = load i32, ptr %4, align 8
  ret i32 %5
}

; Function Attrs: mustprogress nounwind uwtable
define noundef nonnull align 8 dereferenceable(32) ptr @_ZNK4LIEF2PE12ResourceNode4nameB5cxx11Ev(ptr noundef nonnull align 8 dereferenceable(76) %0) #1 align 2 {
  %2 = alloca ptr, align 8
  store ptr %0, ptr %2, align 8
  %3 = load ptr, ptr %2, align 8
  %4 = getelementptr inbounds %"class.LIEF::PE::ResourceNode", ptr %3, i32 0, i32 3
  ret ptr %4
}

; Function Attrs: mustprogress nounwind uwtable
define noundef zeroext i1 @_ZNK4LIEF2PE12ResourceNode8has_nameEv(ptr noundef nonnull align 8 dereferenceable(76) %0) #1 align 2 {
  %2 = alloca ptr, align 8
  store ptr %0, ptr %2, align 8
  %3 = load ptr, ptr %2, align 8
  %4 = call noundef i32 @_ZNK4LIEF2PE12ResourceNode2idEv(ptr noundef nonnull align 8 dereferenceable(76) %3)
  %5 = and i32 %4, -2147483648
  %6 = icmp ne i32 %5, 0
  ret i1 %6
}

; Function Attrs: mustprogress nounwind uwtable
define noundef i32 @_ZNK4LIEF2PE12ResourceNode2idEv(ptr noundef nonnull align 8 dereferenceable(76) %0) #1 align 2 {
  %2 = alloca ptr, align 8
  store ptr %0, ptr %2, align 8
  %3 = load ptr, ptr %2, align 8
  %4 = getelementptr inbounds %"class.LIEF::PE::ResourceNode", ptr %3, i32 0, i32 2
  %5 = load i32, ptr %4, align 4
  ret i32 %5
}

; Function Attrs: mustprogress nounwind uwtable
define linkonce_odr i8 @_ZSt7setfillIcESt8_SetfillIT_ES1_(i8 noundef signext %0) #1 comdat {
  %2 = alloca %"struct.std::_Setfill", align 1
  %3 = alloca i8, align 1
  store i8 %0, ptr %3, align 1
  %4 = getelementptr inbounds %"struct.std::_Setfill", ptr %2, i32 0, i32 0
  %5 = load i8, ptr %3, align 1
  store i8 %5, ptr %4, align 1
  %6 = getelementptr inbounds %"struct.std::_Setfill", ptr %2, i32 0, i32 0
  %7 = load i8, ptr %6, align 1
  ret i8 %7
}

; Function Attrs: mustprogress nounwind uwtable
define linkonce_odr i32 @_ZSt4setwi(i32 noundef %0) #1 comdat {
  %2 = alloca %"struct.std::_Setw", align 4
  %3 = alloca i32, align 4
  store i32 %0, ptr %3, align 4
  %4 = getelementptr inbounds %"struct.std::_Setw", ptr %2, i32 0, i32 0
  %5 = load i32, ptr %3, align 4
  store i32 %5, ptr %4, align 4
  %6 = getelementptr inbounds %"struct.std::_Setw", ptr %2, i32 0, i32 0
  %7 = load i32, ptr %6, align 4
  ret i32 %7
}

; Function Attrs: mustprogress nounwind uwtable
define noundef zeroext i1 @_ZNK4LIEF2PE12ResourceNode12is_directoryEv(ptr noundef nonnull align 8 dereferenceable(76) %0) #1 align 2 {
  %2 = alloca ptr, align 8
  store ptr %0, ptr %2, align 8
  %3 = load ptr, ptr %2, align 8
  %4 = getelementptr inbounds %"class.LIEF::PE::ResourceNode", ptr %3, i32 0, i32 1
  %5 = load i32, ptr %4, align 8
  %6 = icmp eq i32 %5, 2
  ret i1 %6
}

; Function Attrs: mustprogress uwtable
define noundef nonnull align 8 dereferenceable(8) ptr @_ZN4LIEF2PElsERSoRKNS0_12ResourceNodeE(ptr noundef nonnull align 8 dereferenceable(8) %0, ptr noundef nonnull align 8 dereferenceable(76) %1) #3 personality ptr @__gxx_personality_v0 {
  %3 = alloca ptr, align 8
  %4 = alloca ptr, align 8
  %5 = alloca %"struct.std::_Setw", align 4
  %6 = alloca %"struct.std::_Setfill", align 1
  %7 = alloca %"class.std::__cxx11::basic_string", align 8
  %8 = alloca ptr, align 8
  %9 = alloca i32, align 4
  %10 = alloca %"class.LIEF::ref_iterator.58", align 8
  store ptr %0, ptr %3, align 8
  store ptr %1, ptr %4, align 8
  %11 = load ptr, ptr %4, align 8
  %12 = call noundef zeroext i1 @_ZNK4LIEF2PE12ResourceNode12is_directoryEv(ptr noundef nonnull align 8 dereferenceable(76) %11)
  br i1 %12, label %13, label %16

13:                                               ; preds = %2
  %14 = load ptr, ptr %3, align 8
  %15 = call noundef nonnull align 8 dereferenceable(8) ptr @_ZStlsISt11char_traitsIcEERSt13basic_ostreamIcT_ES5_PKc(ptr noundef nonnull align 8 dereferenceable(8) %14, ptr noundef @.str.3)
  br label %19

16:                                               ; preds = %2
  %17 = load ptr, ptr %3, align 8
  %18 = call noundef nonnull align 8 dereferenceable(8) ptr @_ZStlsISt11char_traitsIcEERSt13basic_ostreamIcT_ES5_PKc(ptr noundef nonnull align 8 dereferenceable(8) %17, ptr noundef @.str.4)
  br label %19

19:                                               ; preds = %16, %13
  %20 = load ptr, ptr %3, align 8
  %21 = call noundef nonnull align 8 dereferenceable(8) ptr @_ZStlsISt11char_traitsIcEERSt13basic_ostreamIcT_ES5_PKc(ptr noundef nonnull align 8 dereferenceable(8) %20, ptr noundef @.str.5)
  %22 = call i32 @_ZSt4setwi(i32 noundef 2)
  %23 = getelementptr inbounds %"struct.std::_Setw", ptr %5, i32 0, i32 0
  store i32 %22, ptr %23, align 4
  %24 = getelementptr inbounds %"struct.std::_Setw", ptr %5, i32 0, i32 0
  %25 = load i32, ptr %24, align 4
  %26 = call noundef nonnull align 8 dereferenceable(8) ptr @_ZStlsIcSt11char_traitsIcEERSt13basic_ostreamIT_T0_ES6_St5_Setw(ptr noundef nonnull align 8 dereferenceable(8) %21, i32 %25)
  %27 = call i8 @_ZSt7setfillIcESt8_SetfillIT_ES1_(i8 noundef signext 48)
  %28 = getelementptr inbounds %"struct.std::_Setfill", ptr %6, i32 0, i32 0
  store i8 %27, ptr %28, align 1
  %29 = getelementptr inbounds %"struct.std::_Setfill", ptr %6, i32 0, i32 0
  %30 = load i8, ptr %29, align 1
  %31 = call noundef nonnull align 8 dereferenceable(8) ptr @_ZStlsIcSt11char_traitsIcEERSt13basic_ostreamIT_T0_ES6_St8_SetfillIS3_E(ptr noundef nonnull align 8 dereferenceable(8) %26, i8 %30)
  %32 = call noundef nonnull align 8 dereferenceable(8) ptr @_ZNSolsEPFRSt8ios_baseS0_E(ptr noundef nonnull align 8 dereferenceable(8) %31, ptr noundef @_ZSt3hexRSt8ios_base)
  %33 = load ptr, ptr %4, align 8
  %34 = call noundef i32 @_ZNK4LIEF2PE12ResourceNode2idEv(ptr noundef nonnull align 8 dereferenceable(76) %33)
  %35 = call noundef nonnull align 8 dereferenceable(8) ptr @_ZNSolsEj(ptr noundef nonnull align 8 dereferenceable(8) %32, i32 noundef %34)
  %36 = load ptr, ptr %4, align 8
  %37 = call noundef zeroext i1 @_ZNK4LIEF2PE12ResourceNode8has_nameEv(ptr noundef nonnull align 8 dereferenceable(76) %36)
  br i1 %37, label %38, label %51

38:                                               ; preds = %19
  %39 = load ptr, ptr %3, align 8
  %40 = call noundef nonnull align 8 dereferenceable(8) ptr @_ZStlsISt11char_traitsIcEERSt13basic_ostreamIcT_ES5_PKc(ptr noundef nonnull align 8 dereferenceable(8) %39, ptr noundef @.str.6)
  %41 = load ptr, ptr %4, align 8
  %42 = call noundef nonnull align 8 dereferenceable(32) ptr @_ZNK4LIEF2PE12ResourceNode4nameB5cxx11Ev(ptr noundef nonnull align 8 dereferenceable(76) %41)
  call void @_ZN4LIEF7u16tou8ERKNSt7__cxx1112basic_stringIDsSt11char_traitsIDsESaIDsEEEb(ptr dead_on_unwind writable sret(%"class.std::__cxx11::basic_string") align 8 %7, ptr noundef nonnull align 8 dereferenceable(32) %42, i1 noundef zeroext false)
  %43 = invoke noundef nonnull align 8 dereferenceable(8) ptr @_ZStlsIcSt11char_traitsIcESaIcEERSt13basic_ostreamIT_T0_ES7_RKNSt7__cxx1112basic_stringIS4_S5_T1_EE(ptr noundef nonnull align 8 dereferenceable(8) %40, ptr noundef nonnull align 8 dereferenceable(32) %7)
          to label %44 unwind label %47

44:                                               ; preds = %38
  %45 = invoke noundef nonnull align 8 dereferenceable(8) ptr @_ZStlsISt11char_traitsIcEERSt13basic_ostreamIcT_ES5_PKc(ptr noundef nonnull align 8 dereferenceable(8) %43, ptr noundef @.str.7)
          to label %46 unwind label %47

46:                                               ; preds = %44
  call void @_ZNSt7__cxx1112basic_stringIcSt11char_traitsIcESaIcEED1Ev(ptr noundef nonnull align 8 dereferenceable(32) %7) #15
  br label %51

47:                                               ; preds = %44, %38
  %48 = landingpad { ptr, i32 }
          cleanup
  %49 = extractvalue { ptr, i32 } %48, 0
  store ptr %49, ptr %8, align 8
  %50 = extractvalue { ptr, i32 } %48, 1
  store i32 %50, ptr %9, align 4
  call void @_ZNSt7__cxx1112basic_stringIcSt11char_traitsIcESaIcEED1Ev(ptr noundef nonnull align 8 dereferenceable(32) %7) #15
  br label %65

51:                                               ; preds = %46, %19
  %52 = load ptr, ptr %3, align 8
  %53 = call noundef nonnull align 8 dereferenceable(8) ptr @_ZStlsISt11char_traitsIcEERSt13basic_ostreamIcT_ES5_PKc(ptr noundef nonnull align 8 dereferenceable(8) %52, ptr noundef @.str.8)
  %54 = call noundef nonnull align 8 dereferenceable(8) ptr @_ZNSolsEPFRSt8ios_baseS0_E(ptr noundef nonnull align 8 dereferenceable(8) %53, ptr noundef @_ZSt3decRSt8ios_base)
  %55 = load ptr, ptr %4, align 8
  %56 = call noundef i32 @_ZNK4LIEF2PE12ResourceNode5depthEv(ptr noundef nonnull align 8 dereferenceable(76) %55)
  %57 = call noundef nonnull align 8 dereferenceable(8) ptr @_ZNSolsEj(ptr noundef nonnull align 8 dereferenceable(8) %54, i32 noundef %56)
  %58 = load ptr, ptr %3, align 8
  %59 = call noundef nonnull align 8 dereferenceable(8) ptr @_ZStlsISt11char_traitsIcEERSt13basic_ostreamIcT_ES5_PKc(ptr noundef nonnull align 8 dereferenceable(8) %58, ptr noundef @.str.9)
  %60 = call noundef nonnull align 8 dereferenceable(8) ptr @_ZNSolsEPFRSt8ios_baseS0_E(ptr noundef nonnull align 8 dereferenceable(8) %59, ptr noundef @_ZSt3decRSt8ios_base)
  %61 = load ptr, ptr %4, align 8
  call void @_ZNK4LIEF2PE12ResourceNode6childsEv(ptr dead_on_unwind writable sret(%"class.LIEF::ref_iterator.58") align 8 %10, ptr noundef nonnull align 8 dereferenceable(76) %61)
  %62 = call noundef i64 @_ZNK4LIEF12ref_iteratorIRKSt6vectorISt10unique_ptrINS_2PE12ResourceNodeESt14default_deleteIS4_EESaIS7_EEPS4_N9__gnu_cxx17__normal_iteratorIPKS7_S9_EEE4sizeEv(ptr noundef nonnull align 8 dereferenceable(24) %10)
  %63 = call noundef nonnull align 8 dereferenceable(8) ptr @_ZNSolsEm(ptr noundef nonnull align 8 dereferenceable(8) %60, i64 noundef %62)
  %64 = load ptr, ptr %3, align 8
  ret ptr %64

65:                                               ; preds = %47
  %66 = load ptr, ptr %8, align 8
  %67 = load i32, ptr %9, align 4
  %68 = insertvalue { ptr, i32 } poison, ptr %66, 0
  %69 = insertvalue { ptr, i32 } %68, i32 %67, 1
  resume { ptr, i32 } %69
}